; Function Attrs: mustprogress nofree norecurse nosync nounwind willreturn memory(argmem: read) uwtable
define noundef zeroext i1 @_ZNK32pxrInternal_v0_24__pxrReserved__16SdfNamespaceEditneERKS0_(ptr noundef nonnull readonly align 4 captures(none) dereferenceable(20) %0, ptr noundef nonnull readonly align 4 captures(none) dereferenceable(20) %1) local_unnamed_addr #5 align 2 {
  %.0.copyload.i.i.i = load i64, ptr %0, align 4
  %.0.copyload.i2.i.i = load i64, ptr %1, align 4
  %3 = icmp eq i64 %.0.copyload.i.i.i, %.0.copyload.i2.i.i
  br i1 %3, label %4, label %_ZNK32pxrInternal_v0_24__pxrReserved__16SdfNamespaceEditeqERKS0_.exit

4:                                                ; preds = %2
  %5 = getelementptr inbounds nuw i8, ptr %0, i64 8
  %6 = getelementptr inbounds nuw i8, ptr %1, i64 8
  %.0.copyload.i.i4.i = load i64, ptr %5, align 4
  %.0.copyload.i2.i5.i = load i64, ptr %6, align 4
  %7 = icmp eq i64 %.0.copyload.i.i4.i, %.0.copyload.i2.i5.i
  br i1 %7, label %8, label %_ZNK32pxrInternal_v0_24__pxrReserved__16SdfNamespaceEditeqERKS0_.exit

8:                                                ; preds = %4
  %9 = getelementptr inbounds nuw i8, ptr %0, i64 16
  %10 = load i32, ptr %9, align 4
  %11 = getelementptr inbounds nuw i8, ptr %1, i64 16
  %12 = load i32, ptr %11, align 4
  %13 = icmp ne i32 %10, %12
  br label %_ZNK32pxrInternal_v0_24__pxrReserved__16SdfNamespaceEditeqERKS0_.exit

_ZNK32pxrInternal_v0_24__pxrReserved__16SdfNamespaceEditeqERKS0_.exit: ; preds = %2, %4, %8
  %14 = phi i1 [ true, %4 ], [ true, %2 ], [ %13, %8 ]
  ret i1 %14
}